; Function Attrs: mustprogress nofree norecurse nosync nounwind memory(argmem: readwrite) uwtable
define internal void @_ZN2cv4gapi12_GLOBAL__N_118fillConstBorderRowIsEEvPhiiiNS_7Scalar_IdEE(ptr noundef writeonly captures(none) %0, i32 noundef %1, i32 noundef %2, i32 noundef %3, ptr noundef readonly captures(none) %4) unnamed_addr #19 {
  %6 = sub nsw i32 %1, %3
  %7 = mul nsw i32 %6, %2
  %8 = sext i32 %7 to i64
  %9 = getelementptr inbounds i16, ptr %0, i64 %8
  %10 = icmp sgt i32 %3, 0
  %11 = icmp sgt i32 %2, 0
  %or.cond = and i1 %10, %11
  br i1 %or.cond, label %.preheader.us.preheader, label %._crit_edge26

.preheader.us.preheader:                          ; preds = %5
  %12 = zext nneg i32 %2 to i64
  %wide.trip.count32 = zext nneg i32 %3 to i64
  br label %.preheader.us

.preheader.us:                                    ; preds = %.preheader.us.preheader, %._crit_edge.us
  %indvars.iv29 = phi i64 [ 0, %.preheader.us.preheader ], [ %indvars.iv.next30, %._crit_edge.us ]
  %13 = mul nuw nsw i64 %indvars.iv29, %12
  br label %_ZN2cv4gapi3ownL8saturateIsivEET_T0_.exit.us

_ZN2cv4gapi3ownL8saturateIsivEET_T0_.exit.us:     ; preds = %.preheader.us, %_ZN2cv4gapi3ownL8saturateIsivEET_T0_.exit.us
  %indvars.iv = phi i64 [ 0, %.preheader.us ], [ %indvars.iv.next, %_ZN2cv4gapi3ownL8saturateIsivEET_T0_.exit.us ]
  %14 = getelementptr inbounds nuw [4 x double], ptr %4, i64 0, i64 %indvars.iv
  %15 = load double, ptr %14, align 8, !tbaa !11
  %16 = tail call noundef double @llvm.round.f64(double %15)
  %17 = fptosi double %16 to i32
  %spec.select36 = tail call i32 @llvm.smin.i32(i32 %17, i32 32767)
  %.sink37 = tail call i32 @llvm.smax.i32(i32 %spec.select36, i32 -32768)
  %.sink = trunc nsw i32 %.sink37 to i16
  %18 = add nuw nsw i64 %indvars.iv, %13
  %19 = getelementptr inbounds nuw i16, ptr %0, i64 %18
  store i16 %.sink, ptr %19, align 2, !tbaa !207
  %20 = getelementptr inbounds nuw i16, ptr %9, i64 %18
  store i16 %.sink, ptr %20, align 2, !tbaa !207
  %indvars.iv.next = add nuw nsw i64 %indvars.iv, 1
  %exitcond.not = icmp eq i64 %indvars.iv.next, %12
  br i1 %exitcond.not, label %._crit_edge.us, label %_ZN2cv4gapi3ownL8saturateIsivEET_T0_.exit.us, !llvm.loop !209

._crit_edge.us:                                   ; preds = %_ZN2cv4gapi3ownL8saturateIsivEET_T0_.exit.us
  %indvars.iv.next30 = add nuw nsw i64 %indvars.iv29, 1
  %exitcond33.not = icmp eq i64 %indvars.iv.next30, %wide.trip.count32
  br i1 %exitcond33.not, label %._crit_edge26, label %.preheader.us, !llvm.loop !210

._crit_edge26:                                    ; preds = %._crit_edge.us, %5
  ret void
}